target datalayout = "e-m:e-p270:32:32-p271:32:32-p272:64:64-i64:64-i128:128-f80:128-n8:16:32:64-S128"
target triple = "x86_64-pc-linux-gnu"

%class.ThreadLocalAllocStats = type { i32, i32, i32, i64, i64, i64, i64, i64, i32, i32 }

; Function Attrs: mustprogress nounwind uwtable
define linkonce_odr hidden noundef i32 @_Z4MAX2IjET_S0_S0_(i32 noundef %0, i32 noundef %1) #1 comdat {
  %3 = alloca i32, align 4
  %4 = alloca i32, align 4
  store i32 %0, ptr %3, align 4
  store i32 %1, ptr %4, align 4
  %5 = load i32, ptr %3, align 4
  %6 = load i32, ptr %4, align 4
  %7 = icmp ugt i32 %5, %6
  br i1 %7, label %8, label %10

8:                                                ; preds = %2
  %9 = load i32, ptr %3, align 4
  br label %12

10:                                               ; preds = %2
  %11 = load i32, ptr %4, align 4
  br label %12

12:                                               ; preds = %10, %8
  %13 = phi i32 [ %9, %8 ], [ %11, %10 ]
  ret i32 %13
}

; Function Attrs: mustprogress nounwind uwtable
define hidden void @_ZN21ThreadLocalAllocStats23update_slow_allocationsEj(ptr noundef nonnull align 8 dereferenceable(64) %0, i32 noundef %1) #1 align 2 {
  %3 = alloca ptr, align 8
  %4 = alloca i32, align 4
  store ptr %0, ptr %3, align 8
  store i32 %1, ptr %4, align 4
  %5 = load ptr, ptr %3, align 8
  %6 = load i32, ptr %4, align 4
  %7 = getelementptr inbounds %class.ThreadLocalAllocStats, ptr %5, i32 0, i32 8
  %8 = load i32, ptr %7, align 8
  %9 = add i32 %8, %6
  store i32 %9, ptr %7, align 8
  %10 = getelementptr inbounds %class.ThreadLocalAllocStats, ptr %5, i32 0, i32 9
  %11 = load i32, ptr %10, align 4
  %12 = load i32, ptr %4, align 4
  %13 = call noundef i32 @_Z4MAX2IjET_S0_S0_(i32 noundef %11, i32 noundef %12)
  %14 = getelementptr inbounds %class.ThreadLocalAllocStats, ptr %5, i32 0, i32 9
  store i32 %13, ptr %14, align 4
  ret void
}