; Function Attrs: mustprogress nofree norecurse nosync nounwind willreturn memory(argmem: readwrite) uwtable
define hidden void @_ZN21ThreadLocalAllocStats23update_slow_allocationsEj(ptr nocapture noundef nonnull align 8 dereferenceable(64) %0, i32 noundef %1) local_unnamed_addr #6 align 2 {
  %3 = getelementptr inbounds i8, ptr %0, i64 56
  %4 = load i32, ptr %3, align 8
  %5 = add i32 %4, %1
  store i32 %5, ptr %3, align 8
  %6 = getelementptr inbounds i8, ptr %0, i64 60
  %7 = load i32, ptr %6, align 4
  %8 = tail call noundef i32 @llvm.umax.i32(i32 %7, i32 %1)
  store i32 %8, ptr %6, align 4
  ret void
}